; Function Attrs: nofree nounwind sspstrong uwtable
define internal noundef ptr @no_gvl_rename(ptr noundef readonly captures(none) %0) #13 {
  %2 = load ptr, ptr %0, align 8, !tbaa !240
  %3 = getelementptr inbounds nuw i8, ptr %0, i64 8
  %4 = load ptr, ptr %3, align 8, !tbaa !242
  %5 = tail call i32 @rename(ptr noundef %2, ptr noundef %4) #22
  %6 = sext i32 %5 to i64
  %7 = inttoptr i64 %6 to ptr
  ret ptr %7
}